; Function Attrs: mustprogress nofree norecurse nosync nounwind willreturn memory(argmem: readwrite) uwtable
define void @_ZN6icu_7513UnicodeStringC2EOS0_(ptr noundef nonnull writeonly align 8 dereferenceable(64) %this, ptr noundef nonnull align 8 dereferenceable(64) %src) unnamed_addr #11 align 2 personality ptr @__gxx_personality_v0 {
entry:
  store ptr getelementptr inbounds ({ [13 x ptr] }, ptr @_ZTVN6icu_7513UnicodeStringE, i64 0, i32 0, i64 2), ptr %this, align 8
  %fUnion.i = getelementptr inbounds i8, ptr %src, i64 8
  %0 = load i16, ptr %fUnion.i, align 8
  %fUnion2.i = getelementptr inbounds i8, ptr %this, i64 8
  store i16 %0, ptr %fUnion2.i, align 8
  %1 = and i16 %0, 2
  %tobool.not.i = icmp eq i16 %1, 0
  br i1 %tobool.not.i, label %if.else.i, label %if.then.i

if.then.i:                                        ; preds = %entry
  %cmp.not.i = icmp eq ptr %this, %src
  br i1 %cmp.not.i, label %_ZN6icu_7513UnicodeString14copyFieldsFromERS0_a.exit, label %do.body.i

do.body.i:                                        ; preds = %if.then.i
  %fBuffer.i = getelementptr inbounds i8, ptr %this, i64 10
  %fBuffer7.i = getelementptr inbounds i8, ptr %src, i64 10
  %2 = ashr i16 %0, 5
  %shr.i.i = sext i16 %2 to i32
  %mul.i = shl nsw i32 %shr.i.i, 1
  %conv9.i = sext i32 %mul.i to i64
  tail call void @llvm.memcpy.p0.p0.i64(ptr nonnull align 2 %fBuffer.i, ptr nonnull align 2 %fBuffer7.i, i64 %conv9.i, i1 false)
  br label %_ZN6icu_7513UnicodeString14copyFieldsFromERS0_a.exit

if.else.i:                                        ; preds = %entry
  %fArray.i = getelementptr inbounds i8, ptr %src, i64 24
  %3 = load ptr, ptr %fArray.i, align 8
  %fArray12.i = getelementptr inbounds i8, ptr %this, i64 24
  store ptr %3, ptr %fArray12.i, align 8
  %fCapacity.i = getelementptr inbounds i8, ptr %src, i64 16
  %4 = load i32, ptr %fCapacity.i, align 8
  %fCapacity15.i = getelementptr inbounds i8, ptr %this, i64 16
  store i32 %4, ptr %fCapacity15.i, align 8
  %cmp.i.i = icmp slt i16 %0, 0
  br i1 %cmp.i.i, label %if.then19.i, label %if.end23.i

if.then19.i:                                      ; preds = %if.else.i
  %fLength.i = getelementptr inbounds i8, ptr %src, i64 12
  %5 = load i32, ptr %fLength.i, align 4
  %fLength22.i = getelementptr inbounds i8, ptr %this, i64 12
  store i32 %5, ptr %fLength22.i, align 4
  br label %if.end23.i

if.end23.i:                                       ; preds = %if.then19.i, %if.else.i
  store i16 1, ptr %fUnion.i, align 8
  store ptr null, ptr %fArray.i, align 8
  store i32 0, ptr %fCapacity.i, align 8
  br label %_ZN6icu_7513UnicodeString14copyFieldsFromERS0_a.exit

_ZN6icu_7513UnicodeString14copyFieldsFromERS0_a.exit: ; preds = %if.then.i, %do.body.i, %if.end23.i
  ret void
}